ARM GAS  C:\Users\cleme\AppData\Local\Temp\ccvwyQbF.s 			page 1


   1              		.syntax unified
   2              		.cpu cortex-m3
   3              		.fpu softvfp
   4              		.eabi_attribute 20, 1
   5              		.eabi_attribute 21, 1
   6              		.eabi_attribute 23, 3
   7              		.eabi_attribute 24, 1
   8              		.eabi_attribute 25, 1
   9              		.eabi_attribute 26, 1
  10              		.eabi_attribute 30, 1
  11              		.eabi_attribute 34, 1
  12              		.eabi_attribute 18, 4
  13              		.thumb
  14              		.syntax unified
  15              		.file	"main.c"
  16              		.text
  17              	.Ltext0:
  18              		.cfi_sections	.debug_frame
  19              		.section	.text.jump,"ax",%progbits
  20              		.align	2
  21              		.global	jump
  22              		.thumb
  23              		.thumb_func
  24              		.type	jump, %function
  25              	jump:
  26              	.LFB64:
  27              		.file 1 "main.c"
   1:main.c        **** //
   2:main.c        **** // Created by Aramson Felho on 10/05/2023.
   3:main.c        **** //
   4:main.c        **** #include <math.h>
   5:main.c        **** 
   6:main.c        **** //#include "keypad.h"  // Keypad header file
   7:main.c        **** #include "utils.h"   // Other functions header file
   8:main.c        **** #include "project.h"
   9:main.c        **** #include "keypad.h"
  10:main.c        **** #include <stdint.h>
  11:main.c        **** 
  12:main.c        **** #define PWM_VALUE 5000  // hasarg
  13:main.c        **** #define COLOR_CHANGE 10000  // The value at wich the color change on the screen
  14:main.c        **** #define COLOR_DELTA 100  // The minimum value to ignore the delta between de 2 photoresistor
  15:main.c        **** 
  16:main.c        **** 
  17:main.c        **** uint8 rxData;
  18:main.c        **** /*
  19:main.c        **** CY_ISR(isr_uart_Handler){
  20:main.c        ****         uint8 status = 0;
  21:main.c        ****         do{
  22:main.c        ****             // Check that rx buffer is not empty and get rx data
  23:main.c        ****             if ( (status & UART_RX_STS_FIFO_NOTEMPTY) != 0){
  24:main.c        ****                 rxData = UART_ReadRxData();
  25:main.c        ****                 UART_PutChar(rxData);
  26:main.c        ****                 if (rxData == "jump") {
  27:main.c        ****                     jump();
  28:main.c        ****                 }else if (rxData == "duck") {
  29:main.c        ****                     duck();
  30:main.c        ****                 }
ARM GAS  C:\Users\cleme\AppData\Local\Temp\ccvwyQbF.s 			page 2


  31:main.c        ****             }
  32:main.c        ****         }while ((status & UART_RX_STS_FIFO_NOTEMPTY) != 0);
  33:main.c        **** 
  34:main.c        **** }
  35:main.c        **** */
  36:main.c        **** int main(void)
  37:main.c        **** {
  38:main.c        ****     CyGlobalIntEnable;  /* Enable global interrupts. */
  39:main.c        **** 
  40:main.c        ****     /* Place your initialization/startup code*/
  41:main.c        ****     int score = 0;
  42:main.c        ****     uint8_t first_jump = 1;
  43:main.c        ****     uint8_t day = 0;
  44:main.c        ****     uint8_t night = 0;
  45:main.c        ****     uint16_t pwm_period = 48000;
  46:main.c        ****     uint32_t photoResVal1 = 0;
  47:main.c        ****     uint32_t photoResVal2 = 0;
  48:main.c        ****     //uint32_t val_CMP;
  49:main.c        ****     //uint32_t val_adc;
  50:main.c        ****     char key = 'z';
  51:main.c        ****     uint16_t cnt = 0;
  52:main.c        **** 
  53:main.c        ****     PWM1_WritePeriod(pwm_period);
  54:main.c        ****     PWM2_WritePeriod(pwm_period);
  55:main.c        ****     //isr_uart_StartEx(isr_uart_Handler);
  56:main.c        **** 
  57:main.c        **** 
  58:main.c        ****     LCD_Start();
  59:main.c        ****     LCD_ClearDisplay();
  60:main.c        ****     //Mux_Start();
  61:main.c        ****     ADC_Start();  // Start the Analog-to-Digital Converter
  62:main.c        ****     UART_Start(); //Start the UART
  63:main.c        ****     keypadInit();  // Call initialization function form keypad.h
  64:main.c        ****     PWM1_Start();
  65:main.c        ****     PWM2_Start();
  66:main.c        ****     PWM1_WriteCompare(3000); //Servo à l'horizontal
  67:main.c        ****     PWM2_WriteCompare(3000); //Servo à l'horizontal
  68:main.c        ****     
  69:main.c        ****     Timer_Start();
  70:main.c        **** 
  71:main.c        ****     for(;;)
  72:main.c        ****     {
  73:main.c        ****         /* Place your application code here. */
  74:main.c        **** 
  75:main.c        ****         // TODO: Increase the score over time (10 points per seconds)
  76:main.c        ****        /* 
  77:main.c        ****         if(0x80 & Timer_ReadStatusRegister()){ //In case of overflow
  78:main.c        ****             if (cnt < 1000){
  79:main.c        ****                 cnt++;
  80:main.c        ****             }
  81:main.c        ****             else{
  82:main.c        ****                 LED1_Write(!LED1_Read());
  83:main.c        ****                 cnt = 0; //Reset counter
  84:main.c        ****             }
  85:main.c        ****         }
  86:main.c        ****         */
  87:main.c        ****         
ARM GAS  C:\Users\cleme\AppData\Local\Temp\ccvwyQbF.s 			page 3


  88:main.c        ****         // Printing the score on the second half of the LCD
  89:main.c        ****         LCD_Position(1,0);
  90:main.c        ****         LCD_PrintNumber(score);
  91:main.c        **** 
  92:main.c        ****         // Button detection
  93:main.c        ****         /*
  94:main.c        ****          * Components name: SW1, SW2, SW3
  95:main.c        ****          */
  96:main.c        ****         if (SW1_Read()){
  97:main.c        ****            jump(&first_jump);
  98:main.c        ****         }
  99:main.c        ****         else if (SW2_Read()) {
 100:main.c        ****             duck();
 101:main.c        **** 
 102:main.c        ****         } else if (SW3_Read()) {
 103:main.c        ****             // Reset the score
 104:main.c        ****             LCD_ClearDisplay();
 105:main.c        ****            (score) = 0;
 106:main.c        ****            (first_jump) = 1;
 107:main.c        **** 
 108:main.c        ****         }
 109:main.c        ****         //
 110:main.c        ****         
 111:main.c        ****         
 112:main.c        ****         
 113:main.c        ****         // Light detection
 114:main.c        ****         //detectLight(&photoResVal1, &photoResVal2, &day, &night);
 115:main.c        **** 
 116:main.c        ****         // Keypad detection
 117:main.c        ****         detectKeyboard(&key);
 118:main.c        **** 
 119:main.c        ****         // Shun-ting down  the LEDs
 120:main.c        ****         LED1_Write(0);
 121:main.c        ****         LED2_Write(0);
 122:main.c        ****         LED3_Write(0);
 123:main.c        ****         LED4_Write(0);
 124:main.c        **** 
 125:main.c        ****     }
 126:main.c        **** }
 127:main.c        **** 
 128:main.c        **** // Jump function
 129:main.c        **** void jump(uint8_t* first_jump){
  28              		.loc 1 129 0
  29              		.cfi_startproc
  30              		@ args = 0, pretend = 0, frame = 0
  31              		@ frame_needed = 0, uses_anonymous_args = 0
  32              	.LVL0:
  33 0000 08B5     		push	{r3, lr}
  34              		.cfi_def_cfa_offset 8
  35              		.cfi_offset 3, -8
  36              		.cfi_offset 14, -4
 130:main.c        ****     if (*first_jump){
  37              		.loc 1 130 0
  38 0002 0378     		ldrb	r3, [r0]	@ zero_extendqisi2
  39 0004 0BB1     		cbz	r3, .L2
 131:main.c        ****         (*first_jump) = 0;
  40              		.loc 1 131 0
ARM GAS  C:\Users\cleme\AppData\Local\Temp\ccvwyQbF.s 			page 4


  41 0006 0023     		movs	r3, #0
  42 0008 0370     		strb	r3, [r0]
  43              	.L2:
 132:main.c        ****     }
 133:main.c        ****     //Activate servo motor 1
 134:main.c        ****     
 135:main.c        ****     // A Changer
 136:main.c        ****     
 137:main.c        ****     PWM1_WriteCompare(1700);
  44              		.loc 1 137 0
  45 000a 40F2A460 		movw	r0, #1700
  46              	.LVL1:
  47 000e FFF7FEFF 		bl	PWM1_WriteCompare
  48              	.LVL2:
 138:main.c        ****     CyDelay(200); 
  49              		.loc 1 138 0
  50 0012 C820     		movs	r0, #200
  51 0014 FFF7FEFF 		bl	CyDelay
  52              	.LVL3:
 139:main.c        ****     PWM1_WriteCompare(3000);
  53              		.loc 1 139 0
  54 0018 40F6B830 		movw	r0, #3000
  55 001c FFF7FEFF 		bl	PWM1_WriteCompare
  56              	.LVL4:
 140:main.c        ****     
 141:main.c        ****     // Printing "Jump" on LCD
 142:main.c        ****     LCD_Position(0,0);
  57              		.loc 1 142 0
  58 0020 0021     		movs	r1, #0
  59 0022 0846     		mov	r0, r1
  60 0024 FFF7FEFF 		bl	LCD_Position
  61              	.LVL5:
 143:main.c        ****     LCD_PrintString("Jump");
  62              		.loc 1 143 0
  63 0028 0648     		ldr	r0, .L4
  64 002a FFF7FEFF 		bl	LCD_PrintString
  65              	.LVL6:
 144:main.c        ****     // Lighting LEDs (1&2)
 145:main.c        ****     LED1_Write(1);
  66              		.loc 1 145 0
  67 002e 0120     		movs	r0, #1
  68 0030 FFF7FEFF 		bl	LED1_Write
  69              	.LVL7:
 146:main.c        ****     LED2_Write(1);
  70              		.loc 1 146 0
  71 0034 0120     		movs	r0, #1
  72 0036 FFF7FEFF 		bl	LED2_Write
  73              	.LVL8:
 147:main.c        ****     CyDelay(500);
  74              		.loc 1 147 0
  75 003a 4FF4FA70 		mov	r0, #500
  76 003e FFF7FEFF 		bl	CyDelay
  77              	.LVL9:
  78 0042 08BD     		pop	{r3, pc}
  79              	.L5:
  80              		.align	2
  81              	.L4:
ARM GAS  C:\Users\cleme\AppData\Local\Temp\ccvwyQbF.s 			page 5


  82 0044 00000000 		.word	.LC0
  83              		.cfi_endproc
  84              	.LFE64:
  85              		.size	jump, .-jump
  86              		.section	.text.duck,"ax",%progbits
  87              		.align	2
  88              		.global	duck
  89              		.thumb
  90              		.thumb_func
  91              		.type	duck, %function
  92              	duck:
  93              	.LFB65:
 148:main.c        ****     // Audio Output 1
 149:main.c        ****     // TODO
 150:main.c        **** }
 151:main.c        **** // Down function
 152:main.c        **** void duck(){
  94              		.loc 1 152 0
  95              		.cfi_startproc
  96              		@ args = 0, pretend = 0, frame = 0
  97              		@ frame_needed = 0, uses_anonymous_args = 0
  98 0000 08B5     		push	{r3, lr}
  99              		.cfi_def_cfa_offset 8
 100              		.cfi_offset 3, -8
 101              		.cfi_offset 14, -4
 153:main.c        ****     //Activate servo motor 2
 154:main.c        ****     
 155:main.c        ****     // A Changer
 156:main.c        ****     
 157:main.c        ****     PWM2_WriteCompare(1700);
 102              		.loc 1 157 0
 103 0002 40F2A460 		movw	r0, #1700
 104 0006 FFF7FEFF 		bl	PWM2_WriteCompare
 105              	.LVL10:
 158:main.c        ****     CyDelay(200); 
 106              		.loc 1 158 0
 107 000a C820     		movs	r0, #200
 108 000c FFF7FEFF 		bl	CyDelay
 109              	.LVL11:
 159:main.c        ****     PWM2_WriteCompare(3000);
 110              		.loc 1 159 0
 111 0010 40F6B830 		movw	r0, #3000
 112 0014 FFF7FEFF 		bl	PWM2_WriteCompare
 113              	.LVL12:
 160:main.c        ****     
 161:main.c        ****     // Printing "Duck" on LCD
 162:main.c        ****     LCD_Position(0,0);
 114              		.loc 1 162 0
 115 0018 0021     		movs	r1, #0
 116 001a 0846     		mov	r0, r1
 117 001c FFF7FEFF 		bl	LCD_Position
 118              	.LVL13:
 163:main.c        ****     LCD_PrintString("Duck");
 119              		.loc 1 163 0
 120 0020 0648     		ldr	r0, .L8
 121 0022 FFF7FEFF 		bl	LCD_PrintString
 122              	.LVL14:
ARM GAS  C:\Users\cleme\AppData\Local\Temp\ccvwyQbF.s 			page 6


 164:main.c        ****     // Lighting LEDs (3&4)
 165:main.c        ****     LED3_Write(1);
 123              		.loc 1 165 0
 124 0026 0120     		movs	r0, #1
 125 0028 FFF7FEFF 		bl	LED3_Write
 126              	.LVL15:
 166:main.c        ****     LED4_Write(1);
 127              		.loc 1 166 0
 128 002c 0120     		movs	r0, #1
 129 002e FFF7FEFF 		bl	LED4_Write
 130              	.LVL16:
 167:main.c        ****     CyDelay(200);
 131              		.loc 1 167 0
 132 0032 C820     		movs	r0, #200
 133 0034 FFF7FEFF 		bl	CyDelay
 134              	.LVL17:
 135 0038 08BD     		pop	{r3, pc}
 136              	.L9:
 137 003a 00BF     		.align	2
 138              	.L8:
 139 003c 08000000 		.word	.LC1
 140              		.cfi_endproc
 141              	.LFE65:
 142              		.size	duck, .-duck
 143              		.section	.text.detectKeyboard,"ax",%progbits
 144              		.align	2
 145              		.global	detectKeyboard
 146              		.thumb
 147              		.thumb_func
 148              		.type	detectKeyboard, %function
 149              	detectKeyboard:
 150              	.LFB66:
 168:main.c        ****     // Audio Output 2
 169:main.c        ****     // TODO
 170:main.c        **** }
 171:main.c        **** 
 172:main.c        **** 
 173:main.c        **** // Keyboard detection
 174:main.c        **** 
 175:main.c        **** void detectKeyboard(char* key){
 151              		.loc 1 175 0
 152              		.cfi_startproc
 153              		@ args = 0, pretend = 0, frame = 0
 154              		@ frame_needed = 0, uses_anonymous_args = 0
 155              	.LVL18:
 156 0000 10B5     		push	{r4, lr}
 157              		.cfi_def_cfa_offset 8
 158              		.cfi_offset 4, -8
 159              		.cfi_offset 14, -4
 160 0002 0446     		mov	r4, r0
 176:main.c        ****     // Detect the char pressed on the keybpard
 177:main.c        ****     *key = keypadScan();
 161              		.loc 1 177 0
 162 0004 FFF7FEFF 		bl	keypadScan
 163              	.LVL19:
 164 0008 2070     		strb	r0, [r4]
 178:main.c        **** 
ARM GAS  C:\Users\cleme\AppData\Local\Temp\ccvwyQbF.s 			page 7


 179:main.c        ****     if (*key != 'z'){
 165              		.loc 1 179 0
 166 000a 7A28     		cmp	r0, #122
 167 000c 09D0     		beq	.L10
 180:main.c        ****         if (*key == '2'){
 168              		.loc 1 180 0
 169 000e 3228     		cmp	r0, #50
 170 0010 03D1     		bne	.L12
 181:main.c        ****             jump(0); //attention, on hardcode un zero comme si c'etait pas un first jump
 171              		.loc 1 181 0
 172 0012 0020     		movs	r0, #0
 173 0014 FFF7FEFF 		bl	jump
 174              	.LVL20:
 175 0018 10BD     		pop	{r4, pc}
 176              	.LVL21:
 177              	.L12:
 182:main.c        ****         }
 183:main.c        ****         else if (*key == '8') {
 178              		.loc 1 183 0
 179 001a 3828     		cmp	r0, #56
 180 001c 01D1     		bne	.L10
 184:main.c        ****             duck();
 181              		.loc 1 184 0
 182 001e FFF7FEFF 		bl	duck
 183              	.LVL22:
 184              	.L10:
 185 0022 10BD     		pop	{r4, pc}
 186              		.cfi_endproc
 187              	.LFE66:
 188              		.size	detectKeyboard, .-detectKeyboard
 189              		.section	.text.main,"ax",%progbits
 190              		.align	2
 191              		.global	main
 192              		.thumb
 193              		.thumb_func
 194              		.type	main, %function
 195              	main:
 196              	.LFB63:
  37:main.c        ****     CyGlobalIntEnable;  /* Enable global interrupts. */
 197              		.loc 1 37 0
 198              		.cfi_startproc
 199              		@ args = 0, pretend = 0, frame = 8
 200              		@ frame_needed = 0, uses_anonymous_args = 0
 201 0000 10B5     		push	{r4, lr}
 202              		.cfi_def_cfa_offset 8
 203              		.cfi_offset 4, -8
 204              		.cfi_offset 14, -4
 205 0002 82B0     		sub	sp, sp, #8
 206              		.cfi_def_cfa_offset 16
  38:main.c        **** 
 207              		.loc 1 38 0
 208              		.syntax unified
 209              	@ 38 "main.c" 1
 210 0004 62B6     		CPSIE   i
 211              	@ 0 "" 2
 212              	.LVL23:
  42:main.c        ****     uint8_t day = 0;
ARM GAS  C:\Users\cleme\AppData\Local\Temp\ccvwyQbF.s 			page 8


 213              		.loc 1 42 0
 214              		.thumb
 215              		.syntax unified
 216 0006 0124     		movs	r4, #1
 217 0008 8DF80740 		strb	r4, [sp, #7]
 218              	.LVL24:
  50:main.c        ****     uint16_t cnt = 0;
 219              		.loc 1 50 0
 220 000c 7A23     		movs	r3, #122
 221 000e 8DF80630 		strb	r3, [sp, #6]
 222              	.LVL25:
  53:main.c        ****     PWM2_WritePeriod(pwm_period);
 223              		.loc 1 53 0
 224 0012 4BF68030 		movw	r0, #48000
 225 0016 FFF7FEFF 		bl	PWM1_WritePeriod
 226              	.LVL26:
  54:main.c        ****     //isr_uart_StartEx(isr_uart_Handler);
 227              		.loc 1 54 0
 228 001a 4BF68030 		movw	r0, #48000
 229 001e FFF7FEFF 		bl	PWM2_WritePeriod
 230              	.LVL27:
  58:main.c        ****     LCD_ClearDisplay();
 231              		.loc 1 58 0
 232 0022 FFF7FEFF 		bl	LCD_Start
 233              	.LVL28:
  59:main.c        ****     //Mux_Start();
 234              		.loc 1 59 0
 235 0026 2046     		mov	r0, r4
 236 0028 FFF7FEFF 		bl	LCD_WriteControl
 237              	.LVL29:
  61:main.c        ****     UART_Start(); //Start the UART
 238              		.loc 1 61 0
 239 002c FFF7FEFF 		bl	ADC_Start
 240              	.LVL30:
  62:main.c        ****     keypadInit();  // Call initialization function form keypad.h
 241              		.loc 1 62 0
 242 0030 FFF7FEFF 		bl	UART_Start
 243              	.LVL31:
  63:main.c        ****     PWM1_Start();
 244              		.loc 1 63 0
 245 0034 FFF7FEFF 		bl	keypadInit
 246              	.LVL32:
  64:main.c        ****     PWM2_Start();
 247              		.loc 1 64 0
 248 0038 FFF7FEFF 		bl	PWM1_Start
 249              	.LVL33:
  65:main.c        ****     PWM1_WriteCompare(3000); //Servo à l'horizontal
 250              		.loc 1 65 0
 251 003c FFF7FEFF 		bl	PWM2_Start
 252              	.LVL34:
  66:main.c        ****     PWM2_WriteCompare(3000); //Servo à l'horizontal
 253              		.loc 1 66 0
 254 0040 40F6B830 		movw	r0, #3000
 255 0044 FFF7FEFF 		bl	PWM1_WriteCompare
 256              	.LVL35:
  67:main.c        ****     
 257              		.loc 1 67 0
ARM GAS  C:\Users\cleme\AppData\Local\Temp\ccvwyQbF.s 			page 9


 258 0048 40F6B830 		movw	r0, #3000
 259 004c FFF7FEFF 		bl	PWM2_WriteCompare
 260              	.LVL36:
  69:main.c        **** 
 261              		.loc 1 69 0
 262 0050 FFF7FEFF 		bl	Timer_Start
 263              	.LVL37:
 264              	.L18:
 265              	.LBB2:
  89:main.c        ****         LCD_PrintNumber(score);
 266              		.loc 1 89 0
 267 0054 0021     		movs	r1, #0
 268 0056 0120     		movs	r0, #1
 269 0058 FFF7FEFF 		bl	LCD_Position
 270              	.LVL38:
  90:main.c        **** 
 271              		.loc 1 90 0
 272 005c 0020     		movs	r0, #0
 273 005e FFF7FEFF 		bl	LCD_PrintU32Number
 274              	.LVL39:
  96:main.c        ****            jump(&first_jump);
 275              		.loc 1 96 0
 276 0062 FFF7FEFF 		bl	SW1_Read
 277              	.LVL40:
 278 0066 20B1     		cbz	r0, .L15
 279              	.LBB3:
  97:main.c        ****         }
 280              		.loc 1 97 0
 281 0068 0DF10700 		add	r0, sp, #7
 282 006c FFF7FEFF 		bl	jump
 283              	.LVL41:
 284              	.LBE3:
 285 0070 0EE0     		b	.L16
 286              	.L15:
  99:main.c        ****             duck();
 287              		.loc 1 99 0
 288 0072 FFF7FEFF 		bl	SW2_Read
 289              	.LVL42:
 290 0076 10B1     		cbz	r0, .L17
 291              	.LBB4:
 100:main.c        **** 
 292              		.loc 1 100 0
 293 0078 FFF7FEFF 		bl	duck
 294              	.LVL43:
 295              	.LBE4:
 296 007c 08E0     		b	.L16
 297              	.L17:
 102:main.c        ****             // Reset the score
 298              		.loc 1 102 0
 299 007e FFF7FEFF 		bl	SW3_Read
 300              	.LVL44:
 301 0082 28B1     		cbz	r0, .L16
 104:main.c        ****            (score) = 0;
 302              		.loc 1 104 0
 303 0084 0120     		movs	r0, #1
 304 0086 FFF7FEFF 		bl	LCD_WriteControl
 305              	.LVL45:
ARM GAS  C:\Users\cleme\AppData\Local\Temp\ccvwyQbF.s 			page 10


 106:main.c        **** 
 306              		.loc 1 106 0
 307 008a 0123     		movs	r3, #1
 308 008c 8DF80730 		strb	r3, [sp, #7]
 309              	.L16:
 117:main.c        **** 
 310              		.loc 1 117 0
 311 0090 0DF10600 		add	r0, sp, #6
 312 0094 FFF7FEFF 		bl	detectKeyboard
 313              	.LVL46:
 120:main.c        ****         LED2_Write(0);
 314              		.loc 1 120 0
 315 0098 0020     		movs	r0, #0
 316 009a FFF7FEFF 		bl	LED1_Write
 317              	.LVL47:
 121:main.c        ****         LED3_Write(0);
 318              		.loc 1 121 0
 319 009e 0020     		movs	r0, #0
 320 00a0 FFF7FEFF 		bl	LED2_Write
 321              	.LVL48:
 122:main.c        ****         LED4_Write(0);
 322              		.loc 1 122 0
 323 00a4 0020     		movs	r0, #0
 324 00a6 FFF7FEFF 		bl	LED3_Write
 325              	.LVL49:
 123:main.c        **** 
 326              		.loc 1 123 0
 327 00aa 0020     		movs	r0, #0
 328 00ac FFF7FEFF 		bl	LED4_Write
 329              	.LVL50:
 330              	.LBE2:
 125:main.c        **** }
 331              		.loc 1 125 0
 332 00b0 D0E7     		b	.L18
 333              		.cfi_endproc
 334              	.LFE63:
 335              		.size	main, .-main
 336              		.comm	rxData,1,1
 337 00b2 00BF     		.section	.rodata.str1.4,"aMS",%progbits,1
 338              		.align	2
 339              	.LC0:
 340 0000 4A756D70 		.ascii	"Jump\000"
 340      00
 341 0005 000000   		.space	3
 342              	.LC1:
 343 0008 4475636B 		.ascii	"Duck\000"
 343      00
 344              		.text
 345              	.Letext0:
 346              		.file 2 "c:\\program files (x86)\\cypress\\psoc creator\\4.4\\psoc creator\\import\\gnu\\arm\\5.4.
 347              		.file 3 "c:\\program files (x86)\\cypress\\psoc creator\\4.4\\psoc creator\\import\\gnu\\arm\\5.4.
 348              		.file 4 "Generated_Source\\PSoC5/cytypes.h"
 349              		.file 5 "Generated_Source\\PSoC5/core_cm3.h"
 350              		.file 6 "Generated_Source\\PSoC5/PWM1.h"
 351              		.file 7 "Generated_Source\\PSoC5/CyLib.h"
 352              		.file 8 "Generated_Source\\PSoC5/LCD.h"
 353              		.file 9 "Generated_Source\\PSoC5/LED1.h"
ARM GAS  C:\Users\cleme\AppData\Local\Temp\ccvwyQbF.s 			page 11


 354              		.file 10 "Generated_Source\\PSoC5/LED2.h"
 355              		.file 11 "Generated_Source\\PSoC5/PWM2.h"
 356              		.file 12 "Generated_Source\\PSoC5/LED3.h"
 357              		.file 13 "Generated_Source\\PSoC5/LED4.h"
 358              		.file 14 "keypad.h"
 359              		.file 15 "Generated_Source\\PSoC5/SW1.h"
 360              		.file 16 "Generated_Source\\PSoC5/SW2.h"
 361              		.file 17 "Generated_Source\\PSoC5/SW3.h"
 362              		.file 18 "Generated_Source\\PSoC5/ADC.h"
 363              		.file 19 "Generated_Source\\PSoC5/UART.h"
 364              		.file 20 "Generated_Source\\PSoC5/Timer.h"